; Function Attrs: nounwind uwtable
define range(i32 0, 2) i32 @ossl_quic_wire_encode_frame_stream_data_blocked(ptr noundef %0, i64 noundef %1, i64 noundef %2) local_unnamed_addr #2 {
  %4 = tail call i32 @WPACKET_quic_write_vlint(ptr noundef %0, i64 noundef 21) #12
  %.not = icmp eq i32 %4, 0
  br i1 %.not, label %9, label %5

5:                                                ; preds = %3
  %6 = tail call i32 @WPACKET_quic_write_vlint(ptr noundef %0, i64 noundef %1) #12
  %.not5 = icmp eq i32 %6, 0
  br i1 %.not5, label %9, label %7

7:                                                ; preds = %5
  %8 = tail call i32 @WPACKET_quic_write_vlint(ptr noundef %0, i64 noundef %2) #12
  %.not6 = icmp ne i32 %8, 0
  %spec.select = zext i1 %.not6 to i32
  br label %9

9:                                                ; preds = %7, %3, %5
  %.0 = phi i32 [ 0, %5 ], [ 0, %3 ], [ %spec.select, %7 ]
  ret i32 %.0
}